target datalayout = "e-m:e-p270:32:32-p271:32:32-p272:64:64-i64:64-i128:128-f80:128-n8:16:32:64-S128"
target triple = "x86_64-pc-linux-gnu"

%struct.myobj_st = type { %struct.crypto_ex_data_st, i32, i32 }
%struct.crypto_ex_data_st = type { ptr, ptr }
%struct.myobj_ex_data_st = type { ptr, i32, i32 }

@gbl_result = internal global i32 0, align 4
@.str.1 = private unnamed_addr constant [29 x i8] c"../openssl/test/exdatatest.c\00", align 1
@saved_idx3 = internal global i32 0, align 4
@.str.13 = private unnamed_addr constant [8 x i8] c"ex_data\00", align 1

; Function Attrs: nounwind uwtable
define internal ptr @MYOBJ_gethello3(ptr noundef %0) #0 {
  %2 = alloca ptr, align 8
  %3 = alloca ptr, align 8
  %4 = alloca ptr, align 8
  %5 = alloca i32, align 4
  store ptr %0, ptr %3, align 8, !tbaa !4
  call void @llvm.lifetime.start.p0(i64 8, ptr %4) #3
  %6 = load ptr, ptr %3, align 8, !tbaa !4
  %7 = getelementptr inbounds nuw %struct.myobj_st, ptr %6, i32 0, i32 0
  %8 = load i32, ptr @saved_idx3, align 4, !tbaa !11
  %9 = call ptr @CRYPTO_get_ex_data(ptr noundef %7, i32 noundef %8)
  store ptr %9, ptr %4, align 8, !tbaa !9
  %10 = load ptr, ptr %4, align 8, !tbaa !9
  %11 = call i32 @test_ptr(ptr noundef @.str.1, i32 noundef 195, ptr noundef @.str.13, ptr noundef %10)
  %12 = icmp ne i32 %11, 0
  br i1 %12, label %13, label %17

13:                                               ; preds = %1
  %14 = load ptr, ptr %4, align 8, !tbaa !9
  %15 = getelementptr inbounds nuw %struct.myobj_ex_data_st, ptr %14, i32 0, i32 0
  %16 = load ptr, ptr %15, align 8, !tbaa !30
  store ptr %16, ptr %2, align 8
  store i32 1, ptr %5, align 4
  br label %20

17:                                               ; preds = %1
  store i32 0, ptr @gbl_result, align 4, !tbaa !11
  %18 = load ptr, ptr %3, align 8, !tbaa !4
  %19 = getelementptr inbounds nuw %struct.myobj_st, ptr %18, i32 0, i32 2
  store i32 0, ptr %19, align 4, !tbaa !18
  store ptr null, ptr %2, align 8
  store i32 1, ptr %5, align 4
  br label %20

20:                                               ; preds = %17, %13
  call void @llvm.lifetime.end.p0(i64 8, ptr %4) #3
  %21 = load ptr, ptr %2, align 8
  ret ptr %21
}